; ModuleID = '53/654.c'
source_filename = "53/654.c"
target datalayout = "e-m:e-p270:32:32-p271:32:32-p272:64:64-i64:64-f80:128-n8:16:32:64-S128"
target triple = "x86_64-pc-linux-gnu"

@.str = private unnamed_addr constant [3 x i8] c"%d\00", align 1
@.str.1 = private unnamed_addr constant [4 x i8] c"%d,\00", align 1

; Function Attrs: noinline nounwind uwtable
define dso_local void @main() #0 {
  %1 = alloca i32, align 4
  %2 = alloca [301 x i32], align 16
  %3 = alloca i32, align 4
  %4 = alloca i32, align 4
  %5 = alloca [301 x i32], align 16
  %6 = alloca i32, align 4
  %7 = alloca i32*, align 8
  %8 = alloca i32*, align 8
  %9 = bitcast [301 x i32]* %5 to i8*
  call void @llvm.memset.p0i8.i64(i8* align 16 %9, i8 0, i64 1204, i1 false)
  store i32 1, i32* %6, align 4
  %10 = getelementptr inbounds [301 x i32], [301 x i32]* %2, i64 0, i64 0
  %11 = getelementptr inbounds i32, i32* %10, i64 1
  store i32* %11, i32** %7, align 8
  %12 = getelementptr inbounds [301 x i32], [301 x i32]* %5, i64 0, i64 0
  store i32* %12, i32** %8, align 8
  %13 = call i32 (i8*, ...) @__isoc99_scanf(i8* getelementptr inbounds ([3 x i8], [3 x i8]* @.str, i64 0, i64 0), i32* %1)
  store i32 0, i32* %3, align 4
  br label %14

14:                                               ; preds = %23, %0
  %15 = load i32, i32* %3, align 4
  %16 = load i32, i32* %1, align 4
  %17 = icmp slt i32 %15, %16
  br i1 %17, label %18, label %26

18:                                               ; preds = %14
  %19 = load i32, i32* %3, align 4
  %20 = sext i32 %19 to i64
  %21 = getelementptr inbounds [301 x i32], [301 x i32]* %2, i64 0, i64 %20
  %22 = call i32 (i8*, ...) @__isoc99_scanf(i8* getelementptr inbounds ([3 x i8], [3 x i8]* @.str, i64 0, i64 0), i32* %21)
  br label %23

23:                                               ; preds = %18
  %24 = load i32, i32* %3, align 4
  %25 = add nsw i32 %24, 1
  store i32 %25, i32* %3, align 4
  br label %14

26:                                               ; preds = %14
  %27 = getelementptr inbounds [301 x i32], [301 x i32]* %2, i64 0, i64 0
  %28 = load i32, i32* %27, align 16
  %29 = getelementptr inbounds [301 x i32], [301 x i32]* %5, i64 0, i64 0
  store i32 %28, i32* %29, align 16
  store i32 1, i32* %3, align 4
  br label %30

30:                                               ; preds = %67, %26
  %31 = load i32, i32* %3, align 4
  %32 = load i32, i32* %1, align 4
  %33 = icmp slt i32 %31, %32
  br i1 %33, label %34, label %72

34:                                               ; preds = %30
  store i32 0, i32* %4, align 4
  br label %35

35:                                               ; preds = %49, %34
  %36 = load i32, i32* %4, align 4
  %37 = load i32, i32* %3, align 4
  %38 = icmp slt i32 %36, %37
  br i1 %38, label %39, label %52

39:                                               ; preds = %35
  %40 = load i32*, i32** %7, align 8
  %41 = load i32, i32* %40, align 4
  %42 = load i32, i32* %4, align 4
  %43 = sext i32 %42 to i64
  %44 = getelementptr inbounds [301 x i32], [301 x i32]* %2, i64 0, i64 %43
  %45 = load i32, i32* %44, align 4
  %46 = icmp eq i32 %41, %45
  br i1 %46, label %47, label %48

47:                                               ; preds = %39
  br label %52

48:                                               ; preds = %39
  br label %49

49:                                               ; preds = %48
  %50 = load i32, i32* %4, align 4
  %51 = add nsw i32 %50, 1
  store i32 %51, i32* %4, align 4
  br label %35

52:                                               ; preds = %47, %35
  %53 = load i32, i32* %4, align 4
  %54 = load i32, i32* %3, align 4
  %55 = icmp sge i32 %53, %54
  br i1 %55, label %56, label %66

56:                                               ; preds = %52
  %57 = load i32, i32* %3, align 4
  %58 = sext i32 %57 to i64
  %59 = getelementptr inbounds [301 x i32], [301 x i32]* %2, i64 0, i64 %58
  %60 = load i32, i32* %59, align 4
  %61 = load i32, i32* %6, align 4
  %62 = sext i32 %61 to i64
  %63 = getelementptr inbounds [301 x i32], [301 x i32]* %5, i64 0, i64 %62
  store i32 %60, i32* %63, align 4
  %64 = load i32, i32* %6, align 4
  %65 = add nsw i32 %64, 1
  store i32 %65, i32* %6, align 4
  br label %66

66:                                               ; preds = %56, %52
  br label %67

67:                                               ; preds = %66
  %68 = load i32, i32* %3, align 4
  %69 = add nsw i32 %68, 1
  store i32 %69, i32* %3, align 4
  %70 = load i32*, i32** %7, align 8
  %71 = getelementptr inbounds i32, i32* %70, i32 1
  store i32* %71, i32** %7, align 8
  br label %30

72:                                               ; preds = %30
  store i32 0, i32* %3, align 4
  br label %73

73:                                               ; preds = %82, %72
  %74 = load i32, i32* %3, align 4
  %75 = load i32, i32* %6, align 4
  %76 = sub nsw i32 %75, 1
  %77 = icmp slt i32 %74, %76
  br i1 %77, label %78, label %87

78:                                               ; preds = %73
  %79 = load i32*, i32** %8, align 8
  %80 = load i32, i32* %79, align 4
  %81 = call i32 (i8*, ...) @printf(i8* getelementptr inbounds ([4 x i8], [4 x i8]* @.str.1, i64 0, i64 0), i32 %80)
  br label %82

82:                                               ; preds = %78
  %83 = load i32, i32* %3, align 4
  %84 = add nsw i32 %83, 1
  store i32 %84, i32* %3, align 4
  %85 = load i32*, i32** %8, align 8
  %86 = getelementptr inbounds i32, i32* %85, i32 1
  store i32* %86, i32** %8, align 8
  br label %73

87:                                               ; preds = %73
  %88 = load i32*, i32** %8, align 8
  %89 = load i32, i32* %88, align 4
  %90 = call i32 (i8*, ...) @printf(i8* getelementptr inbounds ([3 x i8], [3 x i8]* @.str, i64 0, i64 0), i32 %89)
  ret void
}

; Function Attrs: argmemonly nounwind willreturn
declare void @llvm.memset.p0i8.i64(i8* nocapture writeonly, i8, i64, i1 immarg) #1

declare dso_local i32 @__isoc99_scanf(i8*, ...) #2

declare dso_local i32 @printf(i8*, ...) #2


!llvm.module.flags = !{!0}
!llvm.ident = !{!1}

!0 = !{i32 1, !"wchar_size", i32 4}
!1 = !{!"clang version 10.0.0-4ubuntu1 "}
